; ModuleID = '10/1757.c'
source_filename = "10/1757.c"
target datalayout = "e-m:e-p270:32:32-p271:32:32-p272:64:64-i64:64-f80:128-n8:16:32:64-S128"
target triple = "x86_64-pc-linux-gnu"

@.str = private unnamed_addr constant [3 x i8] c"%d\00", align 1

; Function Attrs: noinline nounwind uwtable
define dso_local i32 @main() #0 {
  %1 = alloca i32, align 4
  %2 = alloca [100 x i32], align 16
  %3 = alloca [100 x i32], align 16
  %4 = alloca i32, align 4
  %5 = alloca i32, align 4
  %6 = alloca i32, align 4
  %7 = alloca i32, align 4
  %8 = alloca i32, align 4
  store i32 0, i32* %1, align 4
  %9 = bitcast [100 x i32]* %2 to i8*
  call void @llvm.memset.p0i8.i64(i8* align 16 %9, i8 0, i64 400, i1 false)
  %10 = bitcast [100 x i32]* %3 to i8*
  call void @llvm.memset.p0i8.i64(i8* align 16 %10, i8 0, i64 400, i1 false)
  %11 = call i32 (i8*, ...) @__isoc99_scanf(i8* getelementptr inbounds ([3 x i8], [3 x i8]* @.str, i64 0, i64 0), i32* %6)
  %12 = load i32, i32* %6, align 4
  store i32 %12, i32* %4, align 4
  br label %13

13:                                               ; preds = %21, %0
  %14 = load i32, i32* %4, align 4
  %15 = icmp sge i32 %14, 1
  br i1 %15, label %16, label %24

16:                                               ; preds = %13
  %17 = load i32, i32* %4, align 4
  %18 = sext i32 %17 to i64
  %19 = getelementptr inbounds [100 x i32], [100 x i32]* %2, i64 0, i64 %18
  %20 = call i32 (i8*, ...) @__isoc99_scanf(i8* getelementptr inbounds ([3 x i8], [3 x i8]* @.str, i64 0, i64 0), i32* %19)
  br label %21

21:                                               ; preds = %16
  %22 = load i32, i32* %4, align 4
  %23 = add nsw i32 %22, -1
  store i32 %23, i32* %4, align 4
  br label %13

24:                                               ; preds = %13
  %25 = getelementptr inbounds [100 x i32], [100 x i32]* %3, i64 0, i64 1
  store i32 1, i32* %25, align 4
  store i32 2, i32* %4, align 4
  br label %26

26:                                               ; preds = %67, %24
  %27 = load i32, i32* %4, align 4
  %28 = load i32, i32* %6, align 4
  %29 = icmp sle i32 %27, %28
  br i1 %29, label %30, label %70

30:                                               ; preds = %26
  store i32 0, i32* %7, align 4
  store i32 1, i32* %5, align 4
  br label %31

31:                                               ; preds = %58, %30
  %32 = load i32, i32* %5, align 4
  %33 = load i32, i32* %4, align 4
  %34 = icmp slt i32 %32, %33
  br i1 %34, label %35, label %61

35:                                               ; preds = %31
  %36 = load i32, i32* %5, align 4
  %37 = sext i32 %36 to i64
  %38 = getelementptr inbounds [100 x i32], [100 x i32]* %2, i64 0, i64 %37
  %39 = load i32, i32* %38, align 4
  %40 = load i32, i32* %4, align 4
  %41 = sext i32 %40 to i64
  %42 = getelementptr inbounds [100 x i32], [100 x i32]* %2, i64 0, i64 %41
  %43 = load i32, i32* %42, align 4
  %44 = icmp sle i32 %39, %43
  br i1 %44, label %45, label %57

45:                                               ; preds = %35
  %46 = load i32, i32* %5, align 4
  %47 = sext i32 %46 to i64
  %48 = getelementptr inbounds [100 x i32], [100 x i32]* %3, i64 0, i64 %47
  %49 = load i32, i32* %48, align 4
  %50 = load i32, i32* %7, align 4
  %51 = icmp sgt i32 %49, %50
  br i1 %51, label %52, label %57

52:                                               ; preds = %45
  %53 = load i32, i32* %5, align 4
  %54 = sext i32 %53 to i64
  %55 = getelementptr inbounds [100 x i32], [100 x i32]* %3, i64 0, i64 %54
  %56 = load i32, i32* %55, align 4
  store i32 %56, i32* %7, align 4
  br label %57

57:                                               ; preds = %52, %45, %35
  br label %58

58:                                               ; preds = %57
  %59 = load i32, i32* %5, align 4
  %60 = add nsw i32 %59, 1
  store i32 %60, i32* %5, align 4
  br label %31

61:                                               ; preds = %31
  %62 = load i32, i32* %7, align 4
  %63 = add nsw i32 %62, 1
  %64 = load i32, i32* %4, align 4
  %65 = sext i32 %64 to i64
  %66 = getelementptr inbounds [100 x i32], [100 x i32]* %3, i64 0, i64 %65
  store i32 %63, i32* %66, align 4
  br label %67

67:                                               ; preds = %61
  %68 = load i32, i32* %4, align 4
  %69 = add nsw i32 %68, 1
  store i32 %69, i32* %4, align 4
  br label %26

70:                                               ; preds = %26
  store i32 0, i32* %8, align 4
  store i32 1, i32* %4, align 4
  br label %71

71:                                               ; preds = %88, %70
  %72 = load i32, i32* %4, align 4
  %73 = load i32, i32* %6, align 4
  %74 = icmp sle i32 %72, %73
  br i1 %74, label %75, label %91

75:                                               ; preds = %71
  %76 = load i32, i32* %4, align 4
  %77 = sext i32 %76 to i64
  %78 = getelementptr inbounds [100 x i32], [100 x i32]* %3, i64 0, i64 %77
  %79 = load i32, i32* %78, align 4
  %80 = load i32, i32* %8, align 4
  %81 = icmp sge i32 %79, %80
  br i1 %81, label %82, label %87

82:                                               ; preds = %75
  %83 = load i32, i32* %4, align 4
  %84 = sext i32 %83 to i64
  %85 = getelementptr inbounds [100 x i32], [100 x i32]* %3, i64 0, i64 %84
  %86 = load i32, i32* %85, align 4
  store i32 %86, i32* %8, align 4
  br label %87

87:                                               ; preds = %82, %75
  br label %88

88:                                               ; preds = %87
  %89 = load i32, i32* %4, align 4
  %90 = add nsw i32 %89, 1
  store i32 %90, i32* %4, align 4
  br label %71

91:                                               ; preds = %71
  store i32 1, i32* %4, align 4
  br label %92

92:                                               ; preds = %110, %91
  %93 = load i32, i32* %4, align 4
  %94 = load i32, i32* %6, align 4
  %95 = icmp sle i32 %93, %94
  br i1 %95, label %96, label %113

96:                                               ; preds = %92
  %97 = load i32, i32* %4, align 4
  %98 = sext i32 %97 to i64
  %99 = getelementptr inbounds [100 x i32], [100 x i32]* %3, i64 0, i64 %98
  %100 = load i32, i32* %99, align 4
  %101 = load i32, i32* %8, align 4
  %102 = icmp eq i32 %100, %101
  br i1 %102, label %103, label %109

103:                                              ; preds = %96
  %104 = load i32, i32* %4, align 4
  %105 = sext i32 %104 to i64
  %106 = getelementptr inbounds [100 x i32], [100 x i32]* %3, i64 0, i64 %105
  %107 = load i32, i32* %106, align 4
  %108 = call i32 (i8*, ...) @printf(i8* getelementptr inbounds ([3 x i8], [3 x i8]* @.str, i64 0, i64 0), i32 %107)
  br label %109

109:                                              ; preds = %103, %96
  br label %110

110:                                              ; preds = %109
  %111 = load i32, i32* %4, align 4
  %112 = add nsw i32 %111, 1
  store i32 %112, i32* %4, align 4
  br label %92

113:                                              ; preds = %92
  %114 = load i32, i32* %1, align 4
  ret i32 %114
}

; Function Attrs: argmemonly nounwind willreturn
declare void @llvm.memset.p0i8.i64(i8* nocapture writeonly, i8, i64, i1 immarg) #1

declare dso_local i32 @__isoc99_scanf(i8*, ...) #2

declare dso_local i32 @printf(i8*, ...) #2


!llvm.module.flags = !{!0}
!llvm.ident = !{!1}

!0 = !{i32 1, !"wchar_size", i32 4}
!1 = !{!"clang version 10.0.0-4ubuntu1 "}
